target datalayout = "e-m:e-p270:32:32-p271:32:32-p272:64:64-i64:64-i128:128-f80:128-n8:16:32:64-S128"
target triple = "x86_64-pc-linux-gnu"

%struct.If_DsdMan_t_ = type { ptr, i32, i32, i32, i32, ptr, ptr, %struct.Vec_Ptr_t_, %struct.Vec_Int_t_, %struct.Vec_Int_t_, ptr, ptr, ptr, [16 x ptr], [16 x ptr], [16 x ptr], [16 x ptr], i32, i32, ptr, ptr, ptr, ptr, ptr, i32, i32, i32, i32, i64, i64, i64, i64, i64 }
%struct.Vec_Ptr_t_ = type { i32, i32, ptr }
%struct.Vec_Int_t_ = type { i32, i32, ptr }
%struct.If_DsdObj_t_ = type { i32, i32, [0 x i32] }

; Function Attrs: inlinehint nounwind uwtable
define internal ptr @Vec_PtrEntry(ptr noundef %0, i32 noundef %1) #1 {
  %3 = alloca ptr, align 8
  %4 = alloca i32, align 4
  store ptr %0, ptr %3, align 8, !tbaa !22
  store i32 %1, ptr %4, align 4, !tbaa !27
  %5 = load ptr, ptr %3, align 8, !tbaa !22
  %6 = getelementptr inbounds nuw %struct.Vec_Ptr_t_, ptr %5, i32 0, i32 2
  %7 = load ptr, ptr %6, align 8, !tbaa !46
  %8 = load i32, ptr %4, align 4, !tbaa !27
  %9 = sext i32 %8 to i64
  %10 = getelementptr inbounds ptr, ptr %7, i64 %9
  %11 = load ptr, ptr %10, align 8, !tbaa !44
  ret ptr %11
}

; Function Attrs: inlinehint nounwind uwtable
define internal ptr @If_DsdVecObj(ptr noundef %0, i32 noundef %1) #1 {
  %3 = alloca ptr, align 8
  %4 = alloca i32, align 4
  store ptr %0, ptr %3, align 8, !tbaa !22
  store i32 %1, ptr %4, align 4, !tbaa !27
  %5 = load ptr, ptr %3, align 8, !tbaa !22
  %6 = load i32, ptr %4, align 4, !tbaa !27
  %7 = call ptr @Vec_PtrEntry(ptr noundef %5, i32 noundef %6)
  ret ptr %7
}

; Function Attrs: inlinehint nounwind uwtable
define internal i32 @Abc_Lit2Var(i32 noundef %0) #1 {
  %2 = alloca i32, align 4
  store i32 %0, ptr %2, align 4, !tbaa !27
  %3 = load i32, ptr %2, align 4, !tbaa !27
  %4 = ashr i32 %3, 1
  ret i32 %4
}

; Function Attrs: inlinehint nounwind uwtable
define internal ptr @If_DsdObjFanin(ptr noundef %0, ptr noundef %1, i32 noundef %2) #1 {
  %4 = alloca ptr, align 8
  %5 = alloca ptr, align 8
  %6 = alloca i32, align 4
  store ptr %0, ptr %4, align 8, !tbaa !22
  store ptr %1, ptr %5, align 8, !tbaa !40
  store i32 %2, ptr %6, align 4, !tbaa !27
  %7 = load ptr, ptr %4, align 8, !tbaa !22
  %8 = load ptr, ptr %5, align 8, !tbaa !40
  %9 = getelementptr inbounds nuw %struct.If_DsdObj_t_, ptr %8, i32 0, i32 2
  %10 = load i32, ptr %6, align 4, !tbaa !27
  %11 = sext i32 %10 to i64
  %12 = getelementptr inbounds [0 x i32], ptr %9, i64 0, i64 %11
  %13 = load i32, ptr %12, align 4, !tbaa !27
  %14 = call i32 @Abc_Lit2Var(i32 noundef %13)
  %15 = call ptr @If_DsdVecObj(ptr noundef %7, i32 noundef %14)
  ret ptr %15
}

; Function Attrs: nounwind uwtable
define i32 @If_DsdSign(ptr noundef %0, ptr noundef %1, i32 noundef %2, i32 noundef %3, i32 noundef %4) #0 {
  %6 = alloca ptr, align 8
  %7 = alloca ptr, align 8
  %8 = alloca i32, align 4
  %9 = alloca i32, align 4
  %10 = alloca i32, align 4
  %11 = alloca ptr, align 8
  %12 = alloca i32, align 4
  store ptr %0, ptr %6, align 8, !tbaa !3
  store ptr %1, ptr %7, align 8, !tbaa !40
  store i32 %2, ptr %8, align 4, !tbaa !27
  store i32 %3, ptr %9, align 4, !tbaa !27
  store i32 %4, ptr %10, align 4, !tbaa !27
  call void @llvm.lifetime.start.p0(i64 8, ptr %11) #15
  %13 = load ptr, ptr %6, align 8, !tbaa !3
  %14 = getelementptr inbounds nuw %struct.If_DsdMan_t_, ptr %13, i32 0, i32 7
  %15 = load ptr, ptr %7, align 8, !tbaa !40
  %16 = load i32, ptr %8, align 4, !tbaa !27
  %17 = call ptr @If_DsdObjFanin(ptr noundef %14, ptr noundef %15, i32 noundef %16)
  store ptr %17, ptr %11, align 8, !tbaa !40
  call void @llvm.lifetime.start.p0(i64 4, ptr %12) #15
  %18 = load ptr, ptr %6, align 8, !tbaa !3
  %19 = load ptr, ptr %11, align 8, !tbaa !40
  %20 = call i32 @If_DsdSign_rec(ptr noundef %18, ptr noundef %19, ptr noundef %9)
  store i32 %20, ptr %12, align 4, !tbaa !27
  %21 = load i32, ptr %10, align 4, !tbaa !27
  %22 = icmp ne i32 %21, 0
  br i1 %22, label %23, label %28

23:                                               ; preds = %5
  %24 = load i32, ptr %12, align 4, !tbaa !27
  %25 = shl i32 %24, 1
  %26 = load i32, ptr %12, align 4, !tbaa !27
  %27 = or i32 %25, %26
  br label %30

28:                                               ; preds = %5
  %29 = load i32, ptr %12, align 4, !tbaa !27
  br label %30

30:                                               ; preds = %28, %23
  %31 = phi i32 [ %27, %23 ], [ %29, %28 ]
  call void @llvm.lifetime.end.p0(i64 4, ptr %12) #15
  call void @llvm.lifetime.end.p0(i64 8, ptr %11) #15
  ret i32 %31
}