; Function Attrs: nofree nosync nounwind memory(readwrite, inaccessiblemem: none) uwtable
define i32 @If_DsdSign(ptr noundef readonly captures(none) %0, ptr noundef readonly captures(none) %1, i32 noundef %2, i32 noundef %3, i32 noundef %4) local_unnamed_addr #24 {
  %6 = alloca i32, align 4
  store i32 %3, ptr %6, align 4, !tbaa !40
  %7 = getelementptr i8, ptr %0, i64 48
  %.val = load ptr, ptr %7, align 8, !tbaa !23
  %8 = getelementptr inbounds nuw i8, ptr %1, i64 8
  %9 = sext i32 %2 to i64
  %10 = getelementptr inbounds [0 x i32], ptr %8, i64 0, i64 %9
  %11 = load i32, ptr %10, align 4, !tbaa !40
  %12 = ashr i32 %11, 1
  %13 = sext i32 %12 to i64
  %14 = getelementptr inbounds ptr, ptr %.val, i64 %13
  %15 = load ptr, ptr %14, align 8, !tbaa !24
  %16 = call i32 @If_DsdSign_rec(ptr noundef %0, ptr noundef %15, ptr noundef nonnull %6)
  %.not = icmp eq i32 %4, 0
  %17 = shl i32 %16, 1
  %18 = select i1 %.not, i32 0, i32 %17
  %19 = or i32 %18, %16
  ret i32 %19
}